target datalayout = "e-m:e-p270:32:32-p271:32:32-p272:64:64-i64:64-i128:128-f80:128-n8:16:32:64-S128"
target triple = "x86_64-unknown-linux-gnu"

%"class.QuantLib::Date" = type { i64 }

; Function Attrs: mustprogress uwtable
define void @_ZN8QuantLib5Index9addFixingERKNS_4DateEdb(ptr noundef nonnull align 8 dereferenceable(112) %this, ptr noundef nonnull align 8 dereferenceable(8) %fixingDate, double noundef %fixing, i1 noundef zeroext %forceOverwrite) unnamed_addr #2 align 2 {
entry:
  %this.addr = alloca ptr, align 8
  %fixingDate.addr = alloca ptr, align 8
  %fixing.addr = alloca double, align 8
  %forceOverwrite.addr = alloca i8, align 1
  store ptr %this, ptr %this.addr, align 8, !tbaa !3
  store ptr %fixingDate, ptr %fixingDate.addr, align 8, !tbaa !3
  store double %fixing, ptr %fixing.addr, align 8, !tbaa !9
  %storedv = zext i1 %forceOverwrite to i8
  store i8 %storedv, ptr %forceOverwrite.addr, align 1, !tbaa !11
  %this1 = load ptr, ptr %this.addr, align 8
  call void @_ZN8QuantLib5Index25checkNativeFixingsAllowedEv(ptr noundef nonnull align 8 dereferenceable(112) %this1)
  %0 = load ptr, ptr %fixingDate.addr, align 8, !tbaa !3
  %1 = load ptr, ptr %fixingDate.addr, align 8, !tbaa !3
  %add.ptr = getelementptr inbounds %"class.QuantLib::Date", ptr %1, i64 1
  %2 = load i8, ptr %forceOverwrite.addr, align 1, !tbaa !11, !range !13, !noundef !14
  %loadedv = trunc i8 %2 to i1
  call void @_ZN8QuantLib5Index10addFixingsIPKNS_4DateEPdEEvT_S6_T0_b(ptr noundef nonnull align 8 dereferenceable(112) %this1, ptr noundef %0, ptr noundef %add.ptr, ptr noundef %fixing.addr, i1 noundef zeroext %loadedv)
  ret void
}