; Function Attrs: mustprogress uwtable
define void @_ZN8QuantLib5Index9addFixingERKNS_4DateEdb(ptr noundef nonnull align 8 dereferenceable(112) %this, ptr noundef nonnull align 8 dereferenceable(8) %fixingDate, double noundef %fixing, i1 noundef zeroext %forceOverwrite) unnamed_addr #3 align 2 {
entry:
  %fixing.addr = alloca double, align 8
  store double %fixing, ptr %fixing.addr, align 8, !tbaa !18
  tail call void @_ZN8QuantLib5Index25checkNativeFixingsAllowedEv(ptr noundef nonnull align 8 dereferenceable(112) %this)
  %add.ptr = getelementptr inbounds i8, ptr %fixingDate, i64 8
  call void @_ZN8QuantLib5Index10addFixingsIPKNS_4DateEPdEEvT_S6_T0_b(ptr noundef nonnull align 8 dereferenceable(112) %this, ptr noundef nonnull %fixingDate, ptr noundef nonnull %add.ptr, ptr noundef nonnull %fixing.addr, i1 noundef zeroext %forceOverwrite)
  ret void
}